target datalayout = "e-m:e-p270:32:32-p271:32:32-p272:64:64-i64:64-i128:128-f80:128-n8:16:32:64-S128"
target triple = "x86_64-pc-linux-gnu"

%struct.H5CX_node_t = type { %struct.H5CX_t, ptr }
%struct.H5CX_t = type { i64, ptr, i64, ptr, i64, ptr, i64, ptr, i64, ptr, i64, ptr, i64, i32, i64, i8, ptr, i8, ptr, i8, i32, i8, [3 x double], i8, i64, i8, i32, i8, %struct.H5Z_cb_t, i8, ptr, i8, %struct.H5T_vlen_alloc_info_t, i8, %struct.H5T_conv_cb_t, i8, i32, i8, i8, i8, i32, i8, i8, i32, i8, i8, i32, i8, i32, i8, i64, i8, i8, i8, i8, i8, ptr, i8, ptr, i8, i32, i8, i32, i8, %struct.H5VL_connector_prop_t, i8, ptr, i8 }
%struct.H5Z_cb_t = type { ptr, ptr }
%struct.H5T_vlen_alloc_info_t = type { ptr, ptr, ptr, ptr }
%struct.H5T_conv_cb_t = type { ptr, ptr }
%struct.H5VL_connector_prop_t = type { ptr, ptr }

@H5E_init_g = global i8 0, align 1
@H5_libinit_g = external global i8, align 1
@H5_libterm_g = external global i8, align 1
@.str = private unnamed_addr constant [97 x i8] c"generated/home/dtcxzyw/WorkSpace/Projects/compilers/llvm-opt-benchmark/bench/hdf5/hdf5/src/H5E.c\00", align 1
@H5E_FUNC_g = external global i64, align 8
@H5E_CANTINIT_g = external global i64, align 8
@.str.1 = private unnamed_addr constant [30 x i8] c"library initialization failed\00", align 1
@.str.2 = private unnamed_addr constant [32 x i8] c"interface initialization failed\00", align 1
@H5E_CANTSET_g = external global i64, align 8
@.str.3 = private unnamed_addr constant [22 x i8] c"can't set API context\00", align 1
@H5E_ERROR_g = external global i64, align 8
@H5E_CANTCREATE_g = external global i64, align 8
@H5E_CANTREGISTER_g = external global i64, align 8
@.str.20 = private unnamed_addr constant [25 x i8] c"can't create error stack\00", align 1
@__func__.H5Eget_current_stack = private unnamed_addr constant [21 x i8] c"H5Eget_current_stack\00", align 1

; Function Attrs: nounwind uwtable
define i64 @H5Eget_current_stack() #0 {
  %1 = alloca ptr, align 8
  %2 = alloca i64, align 8
  %3 = alloca %struct.H5CX_node_t, align 8
  %4 = alloca i8, align 1
  %5 = alloca i8, align 1
  call void @llvm.lifetime.start.p0(i64 8, ptr %1) #7
  call void @llvm.lifetime.start.p0(i64 8, ptr %2) #7
  store i64 -1, ptr %2, align 8, !tbaa !8
  call void @llvm.lifetime.start.p0(i64 480, ptr %3) #7
  call void @llvm.memset.p0.i64(ptr align 8 %3, i8 0, i64 480, i1 false)
  call void @llvm.lifetime.start.p0(i64 1, ptr %4) #7
  store i8 0, ptr %4, align 1, !tbaa !10
  call void @llvm.lifetime.start.p0(i64 1, ptr %5) #7
  store i8 0, ptr %5, align 1, !tbaa !10
  br label %6

6:                                                ; preds = %0
  %7 = load i8, ptr @H5_libinit_g, align 1, !tbaa !10, !range !12, !noundef !13
  %8 = trunc i8 %7 to i1
  br i1 %8, label %13, label %9

9:                                                ; preds = %6
  %10 = load i8, ptr @H5_libterm_g, align 1, !tbaa !10, !range !12, !noundef !13
  %11 = trunc i8 %10 to i1
  %12 = xor i1 %11, true
  br label %13

13:                                               ; preds = %9, %6
  %14 = phi i1 [ false, %6 ], [ %12, %9 ]
  %15 = xor i1 %14, true
  %16 = xor i1 %15, true
  %17 = zext i1 %16 to i32
  %18 = sext i32 %17 to i64
  %19 = call i64 @llvm.expect.i64(i64 %18, i64 0)
  %20 = icmp ne i64 %19, 0
  br i1 %20, label %21, label %50

21:                                               ; preds = %13
  %22 = call i32 @H5_init_library()
  %23 = icmp slt i32 %22, 0
  %24 = xor i1 %23, true
  %25 = xor i1 %24, true
  %26 = zext i1 %25 to i32
  %27 = sext i32 %26 to i64
  %28 = call i64 @llvm.expect.i64(i64 %27, i64 0)
  %29 = icmp ne i64 %28, 0
  br i1 %29, label %30, label %49

30:                                               ; preds = %21
  br label %31

31:                                               ; preds = %30
  br label %32

32:                                               ; preds = %31
  br label %33

33:                                               ; preds = %32
  %34 = load i64, ptr @H5E_FUNC_g, align 8, !tbaa !8
  %35 = load i64, ptr @H5E_CANTINIT_g, align 8, !tbaa !8
  %36 = call i32 (ptr, ptr, i32, i64, i64, ptr, ...) @H5E_printf_stack(ptr noundef @.str, ptr noundef @__func__.H5Eget_current_stack, i32 noundef 335, i64 noundef %34, i64 noundef %35, ptr noundef @.str.1)
  br label %37

37:                                               ; preds = %33
  br label %38

38:                                               ; preds = %37
  store i8 1, ptr %5, align 1, !tbaa !10
  %39 = load i8, ptr %5, align 1, !tbaa !10, !range !12, !noundef !13
  %40 = trunc i8 %39 to i1
  %41 = zext i1 %40 to i8
  store i8 %41, ptr %5, align 1, !tbaa !10
  br label %42

42:                                               ; preds = %38
  br label %43

43:                                               ; preds = %42
  br label %44

44:                                               ; preds = %43
  store i64 -1, ptr %2, align 8, !tbaa !8
  br label %168

45:                                               ; No predecessors!
  br label %46

46:                                               ; preds = %45
  br label %47

47:                                               ; preds = %46
  br label %48

48:                                               ; preds = %47
  br label %49

49:                                               ; preds = %48, %21
  br label %50

50:                                               ; preds = %49, %13
  %51 = load i8, ptr @H5E_init_g, align 1, !tbaa !10, !range !12, !noundef !13
  %52 = trunc i8 %51 to i1
  br i1 %52, label %57, label %53

53:                                               ; preds = %50
  %54 = load i8, ptr @H5_libterm_g, align 1, !tbaa !10, !range !12, !noundef !13
  %55 = trunc i8 %54 to i1
  %56 = xor i1 %55, true
  br label %57

57:                                               ; preds = %53, %50
  %58 = phi i1 [ false, %50 ], [ %56, %53 ]
  %59 = xor i1 %58, true
  %60 = xor i1 %59, true
  %61 = zext i1 %60 to i32
  %62 = sext i32 %61 to i64
  %63 = call i64 @llvm.expect.i64(i64 %62, i64 0)
  %64 = icmp ne i64 %63, 0
  br i1 %64, label %65, label %88

65:                                               ; preds = %57
  store i8 1, ptr @H5E_init_g, align 1, !tbaa !10
  %66 = call i32 @H5E__init_package()
  %67 = icmp slt i32 %66, 0
  br i1 %67, label %68, label %87

68:                                               ; preds = %65
  store i8 0, ptr @H5E_init_g, align 1, !tbaa !10
  br label %69

69:                                               ; preds = %68
  br label %70

70:                                               ; preds = %69
  br label %71

71:                                               ; preds = %70
  %72 = load i64, ptr @H5E_FUNC_g, align 8, !tbaa !8
  %73 = load i64, ptr @H5E_CANTINIT_g, align 8, !tbaa !8
  %74 = call i32 (ptr, ptr, i32, i64, i64, ptr, ...) @H5E_printf_stack(ptr noundef @.str, ptr noundef @__func__.H5Eget_current_stack, i32 noundef 335, i64 noundef %72, i64 noundef %73, ptr noundef @.str.2)
  br label %75

75:                                               ; preds = %71
  br label %76

76:                                               ; preds = %75
  store i8 1, ptr %5, align 1, !tbaa !10
  %77 = load i8, ptr %5, align 1, !tbaa !10, !range !12, !noundef !13
  %78 = trunc i8 %77 to i1
  %79 = zext i1 %78 to i8
  store i8 %79, ptr %5, align 1, !tbaa !10
  br label %80

80:                                               ; preds = %76
  br label %81

81:                                               ; preds = %80
  br label %82

82:                                               ; preds = %81
  store i64 -1, ptr %2, align 8, !tbaa !8
  br label %168

83:                                               ; No predecessors!
  br label %84

84:                                               ; preds = %83
  br label %85

85:                                               ; preds = %84
  br label %86

86:                                               ; preds = %85
  br label %87

87:                                               ; preds = %86, %65
  br label %88

88:                                               ; preds = %87, %57
  br label %89

89:                                               ; preds = %88
  br label %90

90:                                               ; preds = %89
  br label %91

91:                                               ; preds = %90
  %92 = call i32 @H5CX_push(ptr noundef %3)
  %93 = icmp slt i32 %92, 0
  %94 = xor i1 %93, true
  %95 = xor i1 %94, true
  %96 = zext i1 %95 to i32
  %97 = sext i32 %96 to i64
  %98 = call i64 @llvm.expect.i64(i64 %97, i64 0)
  %99 = icmp ne i64 %98, 0
  br i1 %99, label %100, label %119

100:                                              ; preds = %91
  br label %101

101:                                              ; preds = %100
  br label %102

102:                                              ; preds = %101
  br label %103

103:                                              ; preds = %102
  %104 = load i64, ptr @H5E_FUNC_g, align 8, !tbaa !8
  %105 = load i64, ptr @H5E_CANTSET_g, align 8, !tbaa !8
  %106 = call i32 (ptr, ptr, i32, i64, i64, ptr, ...) @H5E_printf_stack(ptr noundef @.str, ptr noundef @__func__.H5Eget_current_stack, i32 noundef 335, i64 noundef %104, i64 noundef %105, ptr noundef @.str.3)
  br label %107

107:                                              ; preds = %103
  br label %108

108:                                              ; preds = %107
  store i8 1, ptr %5, align 1, !tbaa !10
  %109 = load i8, ptr %5, align 1, !tbaa !10, !range !12, !noundef !13
  %110 = trunc i8 %109 to i1
  %111 = zext i1 %110 to i8
  store i8 %111, ptr %5, align 1, !tbaa !10
  br label %112

112:                                              ; preds = %108
  br label %113

113:                                              ; preds = %112
  br label %114

114:                                              ; preds = %113
  store i64 -1, ptr %2, align 8, !tbaa !8
  br label %168

115:                                              ; No predecessors!
  br label %116

116:                                              ; preds = %115
  br label %117

117:                                              ; preds = %116
  br label %118

118:                                              ; preds = %117
  br label %120

119:                                              ; preds = %91
  store i8 1, ptr %4, align 1, !tbaa !10
  br label %120

120:                                              ; preds = %119, %118
  br label %121

121:                                              ; preds = %120
  br label %122

122:                                              ; preds = %121
  %123 = call ptr @H5E__get_current_stack()
  store ptr %123, ptr %1, align 8, !tbaa !21
  %124 = icmp eq ptr null, %123
  br i1 %124, label %125, label %144

125:                                              ; preds = %122
  br label %126

126:                                              ; preds = %125
  br label %127

127:                                              ; preds = %126
  br label %128

128:                                              ; preds = %127
  %129 = load i64, ptr @H5E_ERROR_g, align 8, !tbaa !8
  %130 = load i64, ptr @H5E_CANTCREATE_g, align 8, !tbaa !8
  %131 = call i32 (ptr, ptr, i32, i64, i64, ptr, ...) @H5E_printf_stack(ptr noundef @.str, ptr noundef @__func__.H5Eget_current_stack, i32 noundef 339, i64 noundef %129, i64 noundef %130, ptr noundef @.str.20)
  br label %132

132:                                              ; preds = %128
  br label %133

133:                                              ; preds = %132
  store i8 1, ptr %5, align 1, !tbaa !10
  %134 = load i8, ptr %5, align 1, !tbaa !10, !range !12, !noundef !13
  %135 = trunc i8 %134 to i1
  %136 = zext i1 %135 to i8
  store i8 %136, ptr %5, align 1, !tbaa !10
  br label %137

137:                                              ; preds = %133
  br label %138

138:                                              ; preds = %137
  br label %139

139:                                              ; preds = %138
  store i64 -1, ptr %2, align 8, !tbaa !8
  br label %168

140:                                              ; No predecessors!
  br label %141

141:                                              ; preds = %140
  br label %142

142:                                              ; preds = %141
  br label %143

143:                                              ; preds = %142
  br label %144

144:                                              ; preds = %143, %122
  %145 = load ptr, ptr %1, align 8, !tbaa !21
  %146 = call i64 @H5I_register(i32 noundef 14, ptr noundef %145, i1 noundef zeroext true)
  store i64 %146, ptr %2, align 8, !tbaa !8
  %147 = icmp slt i64 %146, 0
  br i1 %147, label %148, label %167

148:                                              ; preds = %144
  br label %149

149:                                              ; preds = %148
  br label %150

150:                                              ; preds = %149
  br label %151

151:                                              ; preds = %150
  %152 = load i64, ptr @H5E_ERROR_g, align 8, !tbaa !8
  %153 = load i64, ptr @H5E_CANTREGISTER_g, align 8, !tbaa !8
  %154 = call i32 (ptr, ptr, i32, i64, i64, ptr, ...) @H5E_printf_stack(ptr noundef @.str, ptr noundef @__func__.H5Eget_current_stack, i32 noundef 343, i64 noundef %152, i64 noundef %153, ptr noundef @.str.20)
  br label %155

155:                                              ; preds = %151
  br label %156

156:                                              ; preds = %155
  store i8 1, ptr %5, align 1, !tbaa !10
  %157 = load i8, ptr %5, align 1, !tbaa !10, !range !12, !noundef !13
  %158 = trunc i8 %157 to i1
  %159 = zext i1 %158 to i8
  store i8 %159, ptr %5, align 1, !tbaa !10
  br label %160

160:                                              ; preds = %156
  br label %161

161:                                              ; preds = %160
  br label %162

162:                                              ; preds = %161
  store i64 -1, ptr %2, align 8, !tbaa !8
  br label %168

163:                                              ; No predecessors!
  br label %164

164:                                              ; preds = %163
  br label %165

165:                                              ; preds = %164
  br label %166

166:                                              ; preds = %165
  br label %167

167:                                              ; preds = %166, %144
  br label %168

168:                                              ; preds = %167, %162, %139, %114, %82, %44
  %169 = load i8, ptr %4, align 1, !tbaa !10, !range !12, !noundef !13
  %170 = trunc i8 %169 to i1
  %171 = xor i1 %170, true
  %172 = xor i1 %171, true
  %173 = zext i1 %172 to i32
  %174 = sext i32 %173 to i64
  %175 = call i64 @llvm.expect.i64(i64 %174, i64 1)
  %176 = icmp ne i64 %175, 0
  br i1 %176, label %177, label %179

177:                                              ; preds = %168
  %178 = call i32 @H5CX_pop(i1 noundef zeroext true)
  store i8 0, ptr %4, align 1, !tbaa !10
  br label %179

179:                                              ; preds = %177, %168
  %180 = load i8, ptr %5, align 1, !tbaa !10, !range !12, !noundef !13
  %181 = trunc i8 %180 to i1
  %182 = xor i1 %181, true
  %183 = xor i1 %182, true
  %184 = zext i1 %183 to i32
  %185 = sext i32 %184 to i64
  %186 = call i64 @llvm.expect.i64(i64 %185, i64 0)
  %187 = icmp ne i64 %186, 0
  br i1 %187, label %188, label %190

188:                                              ; preds = %179
  %189 = call i32 @H5E_dump_api_stack()
  br label %190

190:                                              ; preds = %188, %179
  %191 = load i64, ptr %2, align 8, !tbaa !8
  call void @llvm.lifetime.end.p0(i64 1, ptr %5) #7
  call void @llvm.lifetime.end.p0(i64 1, ptr %4) #7
  call void @llvm.lifetime.end.p0(i64 480, ptr %3) #7
  call void @llvm.lifetime.end.p0(i64 8, ptr %2) #7
  call void @llvm.lifetime.end.p0(i64 8, ptr %1) #7
  ret i64 %191
}