; Function Attrs: nounwind uwtable
define range(i64 -1, -9223372036854775808) i64 @H5Eget_current_stack() local_unnamed_addr #0 {
  %1 = alloca %struct.H5CX_node_t, align 8
  call void @llvm.lifetime.start.p0(i64 480, ptr nonnull %1) #7
  call void @llvm.memset.p0.i64(ptr noundef nonnull align 8 dereferenceable(480) %1, i8 0, i64 480, i1 false)
  %2 = load i8, ptr @H5_libinit_g, align 1, !tbaa !3, !range !7, !noundef !8
  %3 = trunc nuw i8 %2 to i1
  %4 = load i8, ptr @H5_libterm_g, align 1, !range !7
  %5 = trunc nuw i8 %4 to i1
  %6 = select i1 %3, i1 true, i1 %5
  br i1 %6, label %14, label %7, !prof !9

7:                                                ; preds = %0
  %8 = tail call i32 @H5_init_library() #7
  %9 = icmp slt i32 %8, 0
  br i1 %9, label %10, label %._crit_edge, !prof !10

._crit_edge:                                      ; preds = %7
  %.pre = load i8, ptr @H5_libterm_g, align 1, !range !7
  br label %14

10:                                               ; preds = %7
  %11 = load i64, ptr @H5E_FUNC_g, align 8, !tbaa !11
  %12 = load i64, ptr @H5E_CANTINIT_g, align 8, !tbaa !11
  %13 = tail call i32 (ptr, ptr, i32, i64, i64, ptr, ...) @H5E_printf_stack(ptr noundef nonnull @.str, ptr noundef nonnull @__func__.H5Eget_current_stack, i32 noundef 335, i64 noundef %11, i64 noundef %12, ptr noundef nonnull @.str.1) #7
  br label %.thread20

14:                                               ; preds = %._crit_edge, %0
  %15 = phi i8 [ %.pre, %._crit_edge ], [ %4, %0 ]
  %16 = load i8, ptr @H5E_init_g, align 1, !tbaa !3, !range !7, !noundef !8
  %17 = trunc nuw i8 %16 to i1
  %18 = trunc nuw i8 %15 to i1
  %19 = select i1 %17, i1 true, i1 %18
  br i1 %19, label %27, label %20, !prof !9

20:                                               ; preds = %14
  store i8 1, ptr @H5E_init_g, align 1, !tbaa !3
  %21 = tail call i32 @H5E__init_package() #7
  %22 = icmp slt i32 %21, 0
  br i1 %22, label %23, label %27, !prof !13

23:                                               ; preds = %20
  store i8 0, ptr @H5E_init_g, align 1, !tbaa !3
  %24 = load i64, ptr @H5E_FUNC_g, align 8, !tbaa !11
  %25 = load i64, ptr @H5E_CANTINIT_g, align 8, !tbaa !11
  %26 = tail call i32 (ptr, ptr, i32, i64, i64, ptr, ...) @H5E_printf_stack(ptr noundef nonnull @.str, ptr noundef nonnull @__func__.H5Eget_current_stack, i32 noundef 335, i64 noundef %24, i64 noundef %25, ptr noundef nonnull @.str.2) #7
  br label %.thread20

27:                                               ; preds = %14, %20
  %28 = call i32 @H5CX_push(ptr noundef nonnull %1) #7
  %29 = icmp slt i32 %28, 0
  br i1 %29, label %30, label %34, !prof !10

30:                                               ; preds = %27
  %31 = load i64, ptr @H5E_FUNC_g, align 8, !tbaa !11
  %32 = load i64, ptr @H5E_CANTSET_g, align 8, !tbaa !11
  %33 = call i32 (ptr, ptr, i32, i64, i64, ptr, ...) @H5E_printf_stack(ptr noundef nonnull @.str, ptr noundef nonnull @__func__.H5Eget_current_stack, i32 noundef 335, i64 noundef %31, i64 noundef %32, ptr noundef nonnull @.str.3) #7
  br label %.thread20

34:                                               ; preds = %27
  %35 = call ptr @H5E__get_current_stack() #7
  %36 = icmp eq ptr %35, null
  br i1 %36, label %.thread26, label %37, !prof !14

37:                                               ; preds = %34
  %38 = call i64 @H5I_register(i32 noundef 14, ptr noundef nonnull %35, i1 noundef zeroext true) #7
  %39 = icmp slt i64 %38, 0
  br i1 %39, label %.thread26, label %44, !prof !14

.thread26:                                        ; preds = %37, %34
  %H5E_CANTREGISTER_g.sink = phi ptr [ @H5E_CANTCREATE_g, %34 ], [ @H5E_CANTREGISTER_g, %37 ]
  %.sink = phi i32 [ 339, %34 ], [ 343, %37 ]
  %40 = load i64, ptr @H5E_ERROR_g, align 8, !tbaa !11
  %41 = load i64, ptr %H5E_CANTREGISTER_g.sink, align 8, !tbaa !11
  %42 = call i32 (ptr, ptr, i32, i64, i64, ptr, ...) @H5E_printf_stack(ptr noundef nonnull @.str, ptr noundef nonnull @__func__.H5Eget_current_stack, i32 noundef %.sink, i64 noundef %40, i64 noundef %41, ptr noundef nonnull @.str.20) #7
  %43 = call i32 @H5CX_pop(i1 noundef zeroext true) #7
  br label %.thread20

44:                                               ; preds = %37
  %45 = call i32 @H5CX_pop(i1 noundef zeroext true) #7
  br label %47

.thread20:                                        ; preds = %30, %23, %10, %.thread26
  %46 = call i32 @H5E_dump_api_stack() #7
  br label %47

47:                                               ; preds = %44, %.thread20
  %.091523 = phi i64 [ -1, %.thread20 ], [ %38, %44 ]
  call void @llvm.lifetime.end.p0(i64 480, ptr nonnull %1) #7
  ret i64 %.091523
}